target datalayout = "e-m:e-p270:32:32-p271:32:32-p272:64:64-i64:64-i128:128-f80:128-n8:16:32:64-S128"
target triple = "x86_64-pc-linux-gnu"

%struct.IDAMemRec = type { ptr, double, ptr, ptr, i32, double, double, ptr, i32, i32, ptr, ptr, i32, i32, i32, ptr, ptr, i32, i32, double, double, ptr, i32, i32, i32, i32, ptr, ptr, i32, ptr, ptr, ptr, i32, double, i32, i32, double, ptr, ptr, ptr, i32, ptr, ptr, i32, i32, i32, double, ptr, ptr, ptr, [6 x ptr], [6 x double], [6 x double], [6 x double], [6 x double], [6 x double], ptr, ptr, ptr, ptr, ptr, ptr, ptr, ptr, ptr, ptr, ptr, ptr, ptr, ptr, ptr, ptr, ptr, [6 x ptr], ptr, ptr, ptr, ptr, [6 x ptr], ptr, ptr, ptr, ptr, ptr, ptr, ptr, ptr, ptr, ptr, ptr, ptr, ptr, ptr, ptr, ptr, [6 x ptr], ptr, ptr, ptr, ptr, ptr, double, ptr, ptr, i32, i32, i32, i32, i32, i32, i32, i32, double, double, double, i32, double, i32, i32, i32, i32, i32, double, double, double, double, double, double, double, double, double, double, double, double, double, double, double, double, double, i32, i32, i32, i32, i64, double, double, double, double, double, double, double, double, double, i64, i64, i64, i64, i64, i64, i64, i64, i64, i64, i64, i64, i64, i64, i64, i64, i64, i64, i64, i64, i64, i64, i64, i64, i64, i64, double, i32, i32, i32, i32, i32, i32, i32, i32, i32, i32, i32, i32, i32, ptr, i32, ptr, i32, ptr, i32, ptr, ptr, ptr, ptr, ptr, ptr, i32, i32, ptr, ptr, ptr, ptr, ptr, ptr, ptr, double, i32, i32, ptr, i32, ptr, ptr, double, double, double, ptr, ptr, ptr, double, double, i32, i32, i64, ptr, i32, ptr, [5 x double], ptr, ptr, i32, ptr, i32 }
%struct.IDAadjMemRec = type { double, double, i32, i32, double, i32, double, ptr, i32, ptr, i32, ptr, ptr, i32, i64, i64, ptr, i64, i32, ptr, ptr, ptr, ptr, i32, i32, i32, i32, i32, [6 x ptr], [6 x ptr], [6 x double], ptr, ptr, ptr, ptr }
%struct.IDABMemRec = type { i32, double, ptr, i32, i32, ptr, ptr, ptr, ptr, ptr, ptr, ptr, ptr, ptr, double, ptr, ptr, ptr }

@.str = private unnamed_addr constant [111 x i8] c"generated/home/dtcxzyw/WorkSpace/Projects/compilers/llvm-opt-benchmark/bench/sundials/sundials/src/idas/idaa.c\00", align 1
@.str.1 = private unnamed_addr constant [24 x i8] c"ida_mem = NULL illegal.\00", align 1
@.str.5 = private unnamed_addr constant [51 x i8] c"Illegal attempt to call before calling IDAadjInit.\00", align 1
@.str.12 = private unnamed_addr constant [25 x i8] c"Illegal value for which.\00", align 1
@__func__.IDAQuadSVtolerancesB = private unnamed_addr constant [21 x i8] c"IDAQuadSVtolerancesB\00", align 1

; Function Attrs: nounwind uwtable
define i32 @IDAQuadSVtolerancesB(ptr noundef %0, i32 noundef %1, double noundef %2, ptr noundef %3) #0 {
  %5 = alloca i32, align 4
  %6 = alloca ptr, align 8
  %7 = alloca i32, align 4
  %8 = alloca double, align 8
  %9 = alloca ptr, align 8
  %10 = alloca ptr, align 8
  %11 = alloca ptr, align 8
  %12 = alloca ptr, align 8
  %13 = alloca ptr, align 8
  %14 = alloca i32, align 4
  store ptr %0, ptr %6, align 8, !tbaa !3
  store i32 %1, ptr %7, align 4, !tbaa !9
  store double %2, ptr %8, align 8, !tbaa !70
  store ptr %3, ptr %9, align 8, !tbaa !71
  call void @llvm.lifetime.start.p0(i64 8, ptr %10) #6
  call void @llvm.lifetime.start.p0(i64 8, ptr %11) #6
  call void @llvm.lifetime.start.p0(i64 8, ptr %12) #6
  call void @llvm.lifetime.start.p0(i64 8, ptr %13) #6
  %15 = load ptr, ptr %6, align 8, !tbaa !3
  %16 = icmp eq ptr %15, null
  br i1 %16, label %17, label %18

17:                                               ; preds = %4
  call void (ptr, i32, i32, ptr, ptr, ptr, ...) @IDAProcessError(ptr noundef null, i32 noundef -20, i32 noundef 1137, ptr noundef @__func__.IDAQuadSVtolerancesB, ptr noundef @.str, ptr noundef @.str.1)
  store i32 -20, ptr %5, align 4
  store i32 1, ptr %14, align 4
  br label %63

18:                                               ; preds = %4
  %19 = load ptr, ptr %6, align 8, !tbaa !3
  store ptr %19, ptr %10, align 8, !tbaa !11
  %20 = load ptr, ptr %10, align 8, !tbaa !11
  %21 = getelementptr inbounds nuw %struct.IDAMemRec, ptr %20, i32 0, i32 240
  %22 = load i32, ptr %21, align 8, !tbaa !50
  %23 = icmp eq i32 %22, 0
  br i1 %23, label %24, label %26

24:                                               ; preds = %18
  %25 = load ptr, ptr %10, align 8, !tbaa !11
  call void (ptr, i32, i32, ptr, ptr, ptr, ...) @IDAProcessError(ptr noundef %25, i32 noundef -101, i32 noundef 1146, ptr noundef @__func__.IDAQuadSVtolerancesB, ptr noundef @.str, ptr noundef @.str.5)
  store i32 -101, ptr %5, align 4
  store i32 1, ptr %14, align 4
  br label %63

26:                                               ; preds = %18
  %27 = load ptr, ptr %10, align 8, !tbaa !11
  %28 = getelementptr inbounds nuw %struct.IDAMemRec, ptr %27, i32 0, i32 239
  %29 = load ptr, ptr %28, align 8, !tbaa !15
  store ptr %29, ptr %11, align 8, !tbaa !13
  %30 = load i32, ptr %7, align 4, !tbaa !9
  %31 = load ptr, ptr %11, align 8, !tbaa !13
  %32 = getelementptr inbounds nuw %struct.IDAadjMemRec, ptr %31, i32 0, i32 8
  %33 = load i32, ptr %32, align 8, !tbaa !44
  %34 = icmp sge i32 %30, %33
  br i1 %34, label %35, label %37

35:                                               ; preds = %26
  %36 = load ptr, ptr %10, align 8, !tbaa !11
  call void (ptr, i32, i32, ptr, ptr, ptr, ...) @IDAProcessError(ptr noundef %36, i32 noundef -22, i32 noundef 1155, ptr noundef @__func__.IDAQuadSVtolerancesB, ptr noundef @.str, ptr noundef @.str.12)
  store i32 -22, ptr %5, align 4
  store i32 1, ptr %14, align 4
  br label %63

37:                                               ; preds = %26
  %38 = load ptr, ptr %11, align 8, !tbaa !13
  %39 = getelementptr inbounds nuw %struct.IDAadjMemRec, ptr %38, i32 0, i32 7
  %40 = load ptr, ptr %39, align 8, !tbaa !42
  store ptr %40, ptr %12, align 8, !tbaa !99
  br label %41

41:                                               ; preds = %51, %37
  %42 = load ptr, ptr %12, align 8, !tbaa !99
  %43 = icmp ne ptr %42, null
  br i1 %43, label %44, label %55

44:                                               ; preds = %41
  %45 = load i32, ptr %7, align 4, !tbaa !9
  %46 = load ptr, ptr %12, align 8, !tbaa !99
  %47 = getelementptr inbounds nuw %struct.IDABMemRec, ptr %46, i32 0, i32 0
  %48 = load i32, ptr %47, align 8, !tbaa !156
  %49 = icmp eq i32 %45, %48
  br i1 %49, label %50, label %51

50:                                               ; preds = %44
  br label %55

51:                                               ; preds = %44
  %52 = load ptr, ptr %12, align 8, !tbaa !99
  %53 = getelementptr inbounds nuw %struct.IDABMemRec, ptr %52, i32 0, i32 17
  %54 = load ptr, ptr %53, align 8, !tbaa !100
  store ptr %54, ptr %12, align 8, !tbaa !99
  br label %41

55:                                               ; preds = %50, %41
  %56 = load ptr, ptr %12, align 8, !tbaa !99
  %57 = getelementptr inbounds nuw %struct.IDABMemRec, ptr %56, i32 0, i32 2
  %58 = load ptr, ptr %57, align 8, !tbaa !102
  store ptr %58, ptr %13, align 8, !tbaa !3
  %59 = load ptr, ptr %13, align 8, !tbaa !3
  %60 = load double, ptr %8, align 8, !tbaa !70
  %61 = load ptr, ptr %9, align 8, !tbaa !71
  %62 = call i32 @IDAQuadSVtolerances(ptr noundef %59, double noundef %60, ptr noundef %61)
  store i32 %62, ptr %5, align 4
  store i32 1, ptr %14, align 4
  br label %63

63:                                               ; preds = %55, %35, %24, %17
  call void @llvm.lifetime.end.p0(i64 8, ptr %13) #6
  call void @llvm.lifetime.end.p0(i64 8, ptr %12) #6
  call void @llvm.lifetime.end.p0(i64 8, ptr %11) #6
  call void @llvm.lifetime.end.p0(i64 8, ptr %10) #6
  %64 = load i32, ptr %5, align 4
  ret i32 %64
}